; Function Attrs: mustprogress uwtable
define hidden void @_ZNK19OpenColorIO_v2_4dev22LogAffineTransformImpl18createEditableCopyEv(ptr noalias nocapture writeonly sret(%"class.std::shared_ptr.13") align 8 %agg.result, ptr noundef nonnull align 8 dereferenceable(264) %this) unnamed_addr #0 align 2 personality ptr @__gxx_personality_v0 {
entry:
  %transform = alloca %"class.std::shared_ptr", align 8
  call void @_ZN19OpenColorIO_v2_4dev18LogAffineTransform6CreateEv(ptr nonnull sret(%"class.std::shared_ptr") align 8 %transform)
  %m_data.i = getelementptr inbounds i8, ptr %this, i64 8
  %0 = load ptr, ptr %transform, align 8, !nonnull !4, !noundef !4
  %1 = tail call ptr @__dynamic_cast(ptr nonnull %0, ptr nonnull @_ZTIN19OpenColorIO_v2_4dev18LogAffineTransformE, ptr nonnull @_ZTIN19OpenColorIO_v2_4dev22LogAffineTransformImplE, i64 0) #16
  %m_data.i1 = getelementptr inbounds i8, ptr %1, i64 8
  %call.i2 = invoke noundef nonnull align 8 dereferenceable(168) ptr @_ZN19OpenColorIO_v2_4dev6OpDataaSERKS0_(ptr noundef nonnull align 8 dereferenceable(168) %m_data.i1, ptr noundef nonnull align 8 dereferenceable(168) %m_data.i)
          to label %call.i.noexc unwind label %lpad

call.i.noexc:                                     ; preds = %entry
  %m_redParams.i = getelementptr inbounds i8, ptr %1, i64 176
  %m_redParams2.i = getelementptr inbounds i8, ptr %this, i64 176
  %call3.i3 = invoke noundef nonnull align 8 dereferenceable(24) ptr @_ZNSt6vectorIdSaIdEEaSERKS1_(ptr noundef nonnull align 8 dereferenceable(24) %m_redParams.i, ptr noundef nonnull align 8 dereferenceable(24) %m_redParams2.i)
          to label %call3.i.noexc unwind label %lpad

call3.i.noexc:                                    ; preds = %call.i.noexc
  %m_greenParams.i = getelementptr inbounds i8, ptr %1, i64 200
  %m_greenParams4.i = getelementptr inbounds i8, ptr %this, i64 200
  %call5.i4 = invoke noundef nonnull align 8 dereferenceable(24) ptr @_ZNSt6vectorIdSaIdEEaSERKS1_(ptr noundef nonnull align 8 dereferenceable(24) %m_greenParams.i, ptr noundef nonnull align 8 dereferenceable(24) %m_greenParams4.i)
          to label %call5.i.noexc unwind label %lpad

call5.i.noexc:                                    ; preds = %call3.i.noexc
  %m_blueParams.i = getelementptr inbounds i8, ptr %1, i64 224
  %m_blueParams6.i = getelementptr inbounds i8, ptr %this, i64 224
  %call7.i5 = invoke noundef nonnull align 8 dereferenceable(24) ptr @_ZNSt6vectorIdSaIdEEaSERKS1_(ptr noundef nonnull align 8 dereferenceable(24) %m_blueParams.i, ptr noundef nonnull align 8 dereferenceable(24) %m_blueParams6.i)
          to label %_ZNSt10shared_ptrIN19OpenColorIO_v2_4dev18LogAffineTransformEED2Ev.exit unwind label %lpad

_ZNSt10shared_ptrIN19OpenColorIO_v2_4dev18LogAffineTransformEED2Ev.exit: ; preds = %call5.i.noexc
  %m_base.i = getelementptr inbounds i8, ptr %1, i64 248
  %m_base8.i = getelementptr inbounds i8, ptr %this, i64 248
  tail call void @llvm.memcpy.p0.p0.i64(ptr noundef nonnull align 8 dereferenceable(12) %m_base.i, ptr noundef nonnull align 8 dereferenceable(12) %m_base8.i, i64 12, i1 false)
  store ptr %0, ptr %agg.result, align 8
  %_M_refcount.i.i = getelementptr inbounds i8, ptr %agg.result, i64 8
  %_M_refcount4.i.i = getelementptr inbounds i8, ptr %transform, i64 8
  %2 = load ptr, ptr %_M_refcount4.i.i, align 8
  store ptr %2, ptr %_M_refcount.i.i, align 8
  ret void

lpad:                                             ; preds = %call5.i.noexc, %call3.i.noexc, %call.i.noexc, %entry
  %3 = landingpad { ptr, i32 }
          cleanup
  call void @_ZNSt10shared_ptrIN19OpenColorIO_v2_4dev18LogAffineTransformEED2Ev(ptr noundef nonnull align 8 dereferenceable(16) %transform) #16
  resume { ptr, i32 } %3
}